; ModuleID = '22/208.c'
source_filename = "22/208.c"
target datalayout = "e-m:e-p270:32:32-p271:32:32-p272:64:64-i64:64-f80:128-n8:16:32:64-S128"
target triple = "x86_64-pc-linux-gnu"

@.str = private unnamed_addr constant [3 x i8] c"%s\00", align 1
@.str.1 = private unnamed_addr constant [3 x i8] c"%d\00", align 1
@.str.2 = private unnamed_addr constant [3 x i8] c"No\00", align 1

; Function Attrs: noinline nounwind uwtable
define dso_local void @main() #0 {
  %1 = alloca [1300 x i8], align 16
  %2 = alloca i32, align 4
  %3 = alloca i32, align 4
  %4 = alloca [400 x i32], align 16
  %5 = alloca i32, align 4
  %6 = alloca i32, align 4
  %7 = alloca i32, align 4
  %8 = alloca i32, align 4
  %9 = alloca i32, align 4
  %10 = bitcast [1300 x i8]* %1 to i8*
  call void @llvm.memset.p0i8.i64(i8* align 16 %10, i8 0, i64 1300, i1 false)
  %11 = bitcast [400 x i32]* %4 to i8*
  call void @llvm.memset.p0i8.i64(i8* align 16 %11, i8 0, i64 1600, i1 false)
  store i32 0, i32* %7, align 4
  %12 = getelementptr inbounds [1300 x i8], [1300 x i8]* %1, i64 0, i64 0
  %13 = call i32 (i8*, ...) @__isoc99_scanf(i8* getelementptr inbounds ([3 x i8], [3 x i8]* @.str, i64 0, i64 0), i8* %12)
  %14 = getelementptr inbounds [1300 x i8], [1300 x i8]* %1, i64 0, i64 0
  %15 = call i64 @strlen(i8* %14) #4
  %16 = trunc i64 %15 to i32
  store i32 %16, i32* %6, align 4
  store i32 0, i32* %2, align 4
  store i32 0, i32* %3, align 4
  br label %17

17:                                               ; preds = %48, %0
  %18 = load i32, i32* %2, align 4
  %19 = load i32, i32* %6, align 4
  %20 = icmp slt i32 %18, %19
  br i1 %20, label %21, label %51

21:                                               ; preds = %17
  %22 = load i32, i32* %2, align 4
  %23 = sext i32 %22 to i64
  %24 = getelementptr inbounds [1300 x i8], [1300 x i8]* %1, i64 0, i64 %23
  %25 = load i8, i8* %24, align 1
  %26 = sext i8 %25 to i32
  %27 = icmp eq i32 %26, 44
  br i1 %27, label %28, label %31

28:                                               ; preds = %21
  %29 = load i32, i32* %3, align 4
  %30 = add nsw i32 %29, 1
  store i32 %30, i32* %3, align 4
  br label %47

31:                                               ; preds = %21
  %32 = load i32, i32* %3, align 4
  %33 = sext i32 %32 to i64
  %34 = getelementptr inbounds [400 x i32], [400 x i32]* %4, i64 0, i64 %33
  %35 = load i32, i32* %34, align 4
  %36 = mul nsw i32 10, %35
  %37 = load i32, i32* %2, align 4
  %38 = sext i32 %37 to i64
  %39 = getelementptr inbounds [1300 x i8], [1300 x i8]* %1, i64 0, i64 %38
  %40 = load i8, i8* %39, align 1
  %41 = sext i8 %40 to i32
  %42 = add nsw i32 %36, %41
  %43 = sub nsw i32 %42, 48
  %44 = load i32, i32* %3, align 4
  %45 = sext i32 %44 to i64
  %46 = getelementptr inbounds [400 x i32], [400 x i32]* %4, i64 0, i64 %45
  store i32 %43, i32* %46, align 4
  br label %47

47:                                               ; preds = %31, %28
  br label %48

48:                                               ; preds = %47
  %49 = load i32, i32* %2, align 4
  %50 = add nsw i32 %49, 1
  store i32 %50, i32* %2, align 4
  br label %17

51:                                               ; preds = %17
  %52 = load i32, i32* %3, align 4
  %53 = add nsw i32 %52, 1
  store i32 %53, i32* %5, align 4
  store i32 0, i32* %3, align 4
  %54 = getelementptr inbounds [400 x i32], [400 x i32]* %4, i64 0, i64 0
  %55 = load i32, i32* %54, align 16
  store i32 %55, i32* %8, align 4
  br label %56

56:                                               ; preds = %73, %51
  %57 = load i32, i32* %3, align 4
  %58 = load i32, i32* %5, align 4
  %59 = icmp slt i32 %57, %58
  br i1 %59, label %60, label %76

60:                                               ; preds = %56
  %61 = load i32, i32* %8, align 4
  %62 = load i32, i32* %3, align 4
  %63 = sext i32 %62 to i64
  %64 = getelementptr inbounds [400 x i32], [400 x i32]* %4, i64 0, i64 %63
  %65 = load i32, i32* %64, align 4
  %66 = icmp slt i32 %61, %65
  br i1 %66, label %67, label %72

67:                                               ; preds = %60
  %68 = load i32, i32* %3, align 4
  %69 = sext i32 %68 to i64
  %70 = getelementptr inbounds [400 x i32], [400 x i32]* %4, i64 0, i64 %69
  %71 = load i32, i32* %70, align 4
  store i32 %71, i32* %8, align 4
  br label %72

72:                                               ; preds = %67, %60
  br label %73

73:                                               ; preds = %72
  %74 = load i32, i32* %3, align 4
  %75 = add nsw i32 %74, 1
  store i32 %75, i32* %3, align 4
  br label %56

76:                                               ; preds = %56
  store i32 0, i32* %3, align 4
  store i32 0, i32* %9, align 4
  br label %77

77:                                               ; preds = %103, %76
  %78 = load i32, i32* %3, align 4
  %79 = load i32, i32* %5, align 4
  %80 = icmp slt i32 %78, %79
  br i1 %80, label %81, label %106

81:                                               ; preds = %77
  %82 = load i32, i32* %3, align 4
  %83 = sext i32 %82 to i64
  %84 = getelementptr inbounds [400 x i32], [400 x i32]* %4, i64 0, i64 %83
  %85 = load i32, i32* %84, align 4
  %86 = load i32, i32* %8, align 4
  %87 = icmp ne i32 %85, %86
  br i1 %87, label %88, label %102

88:                                               ; preds = %81
  %89 = load i32, i32* %3, align 4
  %90 = sext i32 %89 to i64
  %91 = getelementptr inbounds [400 x i32], [400 x i32]* %4, i64 0, i64 %90
  %92 = load i32, i32* %91, align 4
  %93 = load i32, i32* %9, align 4
  %94 = icmp sge i32 %92, %93
  br i1 %94, label %95, label %102

95:                                               ; preds = %88
  %96 = load i32, i32* %7, align 4
  %97 = add nsw i32 %96, 1
  store i32 %97, i32* %7, align 4
  %98 = load i32, i32* %3, align 4
  %99 = sext i32 %98 to i64
  %100 = getelementptr inbounds [400 x i32], [400 x i32]* %4, i64 0, i64 %99
  %101 = load i32, i32* %100, align 4
  store i32 %101, i32* %9, align 4
  br label %102

102:                                              ; preds = %95, %88, %81
  br label %103

103:                                              ; preds = %102
  %104 = load i32, i32* %3, align 4
  %105 = add nsw i32 %104, 1
  store i32 %105, i32* %3, align 4
  br label %77

106:                                              ; preds = %77
  %107 = load i32, i32* %7, align 4
  %108 = icmp ne i32 %107, 0
  br i1 %108, label %109, label %112

109:                                              ; preds = %106
  %110 = load i32, i32* %9, align 4
  %111 = call i32 (i8*, ...) @printf(i8* getelementptr inbounds ([3 x i8], [3 x i8]* @.str.1, i64 0, i64 0), i32 %110)
  br label %114

112:                                              ; preds = %106
  %113 = call i32 (i8*, ...) @printf(i8* getelementptr inbounds ([3 x i8], [3 x i8]* @.str.2, i64 0, i64 0))
  br label %114

114:                                              ; preds = %112, %109
  ret void
}

; Function Attrs: argmemonly nounwind willreturn
declare void @llvm.memset.p0i8.i64(i8* nocapture writeonly, i8, i64, i1 immarg) #1

declare dso_local i32 @__isoc99_scanf(i8*, ...) #2

; Function Attrs: nounwind readonly
declare dso_local i64 @strlen(i8*) #3

declare dso_local i32 @printf(i8*, ...) #2


!llvm.module.flags = !{!0}
!llvm.ident = !{!1}

!0 = !{i32 1, !"wchar_size", i32 4}
!1 = !{!"clang version 10.0.0-4ubuntu1 "}
